target datalayout = "e-m:e-p270:32:32-p271:32:32-p272:64:64-i64:64-i128:128-f80:128-n8:16:32:64-S128"
target triple = "x86_64-pc-linux-gnu"

%struct.H5C_class_t = type { i32, ptr, i32, i32, ptr, ptr, ptr, ptr, ptr, ptr, ptr, ptr, ptr, ptr }
%struct.H5F_t = type { ptr, ptr, ptr, ptr, i32, ptr, i8, i8, ptr, i32 }
%struct.H5F_shared_t = type { ptr, ptr, ptr, i8, i32, i32, %struct.H5F_mtab_t, ptr, i8, i8, i64, i32, i32, i64, i64, ptr, ptr, %struct.H5AC_cache_config_t, %struct.H5AC_cache_image_config_t, i8, i8, ptr, i64, i32, i8, i64, i64, double, i64, i64, i64, i32, i32, i32, i8, i32, ptr, ptr, ptr, ptr, i8, i8, i8, i64, ptr, ptr, i32, i64, i8, i32, i8, i64, i8, [13 x i32], [13 x i64], [13 x ptr], i8, i64, i64, [7 x i32], [7 x i32], %struct.H5F_blk_aggr_t, %struct.H5F_blk_aggr_t, i64, i64, %struct.H5F_meta_accum_t, i32, i32, [30 x ptr], %struct.H5F_object_flush_t, i8, ptr }
%struct.H5F_mtab_t = type { i32, i32, ptr }
%struct.H5AC_cache_config_t = type { i32, i8, i8, i8, [1025 x i8], i8, i8, i64, double, i64, i64, i64, i32, double, double, i8, i64, i32, double, double, i32, double, double, i8, i64, i32, i8, double, i64, i32 }
%struct.H5AC_cache_image_config_t = type { i32, i8, i8, i32 }
%struct.H5F_blk_aggr_t = type { i64, i64, i64, i64, i64 }
%struct.H5F_meta_accum_t = type { ptr, i64, i64, i64, i64, i64, i8 }
%struct.H5F_object_flush_t = type { ptr, ptr }
%struct.H5C_cache_image_ctl_t = type { i32, i8, i8, i32, i32 }
%struct.H5C_t = type { i8, ptr, ptr, i32, ptr, i64, i64, ptr, i8, ptr, i8, i8, i32, i64, [6 x i32], [6 x i64], i64, [6 x i64], i64, [6 x i64], [65536 x ptr], i32, i64, ptr, ptr, i64, ptr, ptr, i8, i8, i32, i64, [6 x i32], [6 x i64], ptr, i32, ptr, i8, i32, i32, i64, ptr, ptr, i32, i64, ptr, ptr, i32, i64, ptr, ptr, i8, i8, i64, i8, i8, i8, i8, i8, i8, %struct.H5C_auto_size_ctl_t, i32, [10 x i8], [11 x i32], i32, i32, i32, [10 x %struct.H5C_cache_entry_t], i64, i64, %struct.H5C_cache_image_ctl_t, i8, i8, i8, i8, i64, i64, i64, i64, i64, i64, i64, i32, ptr, ptr, i8, i8, [32 x i8] }
%struct.H5C_auto_size_ctl_t = type { i32, ptr, i8, i64, double, i64, i64, i64, i32, double, double, i8, i64, i32, double, double, i32, double, double, i8, i64, i32, i8, double }
%struct.H5C_cache_entry_t = type { ptr, i64, i64, ptr, i8, ptr, i8, i8, i8, i8, i32, i8, i8, i8, i8, i8, i32, ptr, i32, i32, i32, i32, i32, i8, i8, ptr, ptr, ptr, ptr, ptr, ptr, i8, i32, i8, i64, ptr, i64, i64, i32, i8, i32, i32, i8, ptr, ptr, ptr }
%struct.H5C_log_info_t = type { i8, i8, ptr, ptr }

@H5AC_init_g = global i8 0, align 1
@H5_libterm_g = external global i8, align 1
@.str = private unnamed_addr constant [98 x i8] c"generated/home/dtcxzyw/WorkSpace/Projects/compilers/llvm-opt-benchmark/bench/hdf5/hdf5/src/H5AC.c\00", align 1
@H5E_FUNC_g = external global i64, align 8
@H5E_CANTINIT_g = external global i64, align 8
@.str.1 = private unnamed_addr constant [32 x i8] c"interface initialization failed\00", align 1
@H5E_CACHE_g = external global i64, align 8
@H5E_BADVALUE_g = external global i64, align 8
@H5E_LOGGING_g = external global i64, align 8
@.str.7 = private unnamed_addr constant [27 x i8] c"unable to emit log message\00", align 1
@.str.16 = private unnamed_addr constant [24 x i8] c"no write intent on file\00", align 1
@__func__.H5AC_protect = private unnamed_addr constant [13 x i8] c"H5AC_protect\00", align 1
@H5E_CANTPROTECT_g = external global i64, align 8
@.str.29 = private unnamed_addr constant [21 x i8] c"H5C_protect() failed\00", align 1

; Function Attrs: nounwind uwtable
define i32 @H5AC__init_package() #0 {
  %1 = load i8, ptr @H5AC_init_g, align 1, !tbaa !7, !range !9, !noundef !10
  %2 = trunc i8 %1 to i1
  br i1 %2, label %7, label %3

3:                                                ; preds = %0
  %4 = load i8, ptr @H5_libterm_g, align 1, !tbaa !7, !range !9, !noundef !10
  %5 = trunc i8 %4 to i1
  %6 = xor i1 %5, true
  br label %7

7:                                                ; preds = %3, %0
  %8 = phi i1 [ true, %0 ], [ %6, %3 ]
  %9 = xor i1 %8, true
  %10 = xor i1 %9, true
  %11 = zext i1 %10 to i32
  %12 = sext i32 %11 to i64
  %13 = call i64 @llvm.expect.i64(i64 %12, i64 1)
  %14 = icmp ne i64 %13, 0
  br i1 %14, label %15, label %16

15:                                               ; preds = %7
  br label %16

16:                                               ; preds = %15, %7
  ret i32 0
}

; Function Attrs: nounwind uwtable
define ptr @H5AC_protect(ptr noundef %0, ptr noundef %1, i64 noundef %2, ptr noundef %3, i32 noundef %4) #0 {
  %6 = alloca ptr, align 8
  %7 = alloca ptr, align 8
  %8 = alloca i64, align 8
  %9 = alloca ptr, align 8
  %10 = alloca i32, align 4
  %11 = alloca ptr, align 8
  %12 = alloca ptr, align 8
  %13 = alloca i8, align 1
  %14 = alloca i32, align 4
  store ptr %0, ptr %6, align 8, !tbaa !13
  store ptr %1, ptr %7, align 8, !tbaa !78
  store i64 %2, ptr %8, align 8, !tbaa !11
  store ptr %3, ptr %9, align 8, !tbaa !84
  store i32 %4, ptr %10, align 4, !tbaa !3
  call void @llvm.lifetime.start.p0(i64 8, ptr %11) #6
  store ptr null, ptr %11, align 8, !tbaa !84
  call void @llvm.lifetime.start.p0(i64 8, ptr %12) #6
  store ptr null, ptr %12, align 8, !tbaa !84
  call void @llvm.lifetime.start.p0(i64 1, ptr %13) #6
  store i8 0, ptr %13, align 1, !tbaa !7
  %15 = load i8, ptr @H5AC_init_g, align 1, !tbaa !7, !range !9, !noundef !10
  %16 = trunc i8 %15 to i1
  br i1 %16, label %21, label %17

17:                                               ; preds = %5
  %18 = load i8, ptr @H5_libterm_g, align 1, !tbaa !7, !range !9, !noundef !10
  %19 = trunc i8 %18 to i1
  %20 = xor i1 %19, true
  br label %21

21:                                               ; preds = %17, %5
  %22 = phi i1 [ false, %5 ], [ %20, %17 ]
  %23 = xor i1 %22, true
  %24 = xor i1 %23, true
  %25 = zext i1 %24 to i32
  %26 = sext i32 %25 to i64
  %27 = call i64 @llvm.expect.i64(i64 %26, i64 0)
  %28 = icmp ne i64 %27, 0
  br i1 %28, label %29, label %52

29:                                               ; preds = %21
  store i8 1, ptr @H5AC_init_g, align 1, !tbaa !7
  %30 = call i32 @H5AC__init_package()
  %31 = icmp slt i32 %30, 0
  br i1 %31, label %32, label %51

32:                                               ; preds = %29
  store i8 0, ptr @H5AC_init_g, align 1, !tbaa !7
  br label %33

33:                                               ; preds = %32
  br label %34

34:                                               ; preds = %33
  br label %35

35:                                               ; preds = %34
  %36 = load i64, ptr @H5E_FUNC_g, align 8, !tbaa !11
  %37 = load i64, ptr @H5E_CANTINIT_g, align 8, !tbaa !11
  %38 = call i32 (ptr, ptr, i32, i64, i64, ptr, ...) @H5E_printf_stack(ptr noundef @.str, ptr noundef @__func__.H5AC_protect, i32 noundef 1273, i64 noundef %36, i64 noundef %37, ptr noundef @.str.1)
  br label %39

39:                                               ; preds = %35
  br label %40

40:                                               ; preds = %39
  store i8 1, ptr %13, align 1, !tbaa !7
  %41 = load i8, ptr %13, align 1, !tbaa !7, !range !9, !noundef !10
  %42 = trunc i8 %41 to i1
  %43 = zext i1 %42 to i8
  store i8 %43, ptr %13, align 1, !tbaa !7
  br label %44

44:                                               ; preds = %40
  br label %45

45:                                               ; preds = %44
  br label %46

46:                                               ; preds = %45
  store ptr null, ptr %12, align 8, !tbaa !84
  br label %124

47:                                               ; No predecessors!
  br label %48

48:                                               ; preds = %47
  br label %49

49:                                               ; preds = %48
  br label %50

50:                                               ; preds = %49
  br label %51

51:                                               ; preds = %50, %29
  br label %52

52:                                               ; preds = %51, %21
  %53 = load i8, ptr @H5AC_init_g, align 1, !tbaa !7, !range !9, !noundef !10
  %54 = trunc i8 %53 to i1
  br i1 %54, label %59, label %55

55:                                               ; preds = %52
  %56 = load i8, ptr @H5_libterm_g, align 1, !tbaa !7, !range !9, !noundef !10
  %57 = trunc i8 %56 to i1
  %58 = xor i1 %57, true
  br label %59

59:                                               ; preds = %55, %52
  %60 = phi i1 [ true, %52 ], [ %58, %55 ]
  %61 = xor i1 %60, true
  %62 = xor i1 %61, true
  %63 = zext i1 %62 to i32
  %64 = sext i32 %63 to i64
  %65 = call i64 @llvm.expect.i64(i64 %64, i64 1)
  %66 = icmp ne i64 %65, 0
  br i1 %66, label %67, label %170

67:                                               ; preds = %59
  %68 = load ptr, ptr %6, align 8, !tbaa !13
  %69 = call i32 @H5F_get_intent(ptr noundef %68)
  %70 = and i32 %69, 1
  %71 = icmp eq i32 0, %70
  br i1 %71, label %72, label %95

72:                                               ; preds = %67
  %73 = load i32, ptr %10, align 4, !tbaa !3
  %74 = and i32 %73, 128
  %75 = icmp eq i32 0, %74
  br i1 %75, label %76, label %95

76:                                               ; preds = %72
  br label %77

77:                                               ; preds = %76
  br label %78

78:                                               ; preds = %77
  br label %79

79:                                               ; preds = %78
  %80 = load i64, ptr @H5E_CACHE_g, align 8, !tbaa !11
  %81 = load i64, ptr @H5E_BADVALUE_g, align 8, !tbaa !11
  %82 = call i32 (ptr, ptr, i32, i64, i64, ptr, ...) @H5E_printf_stack(ptr noundef @.str, ptr noundef @__func__.H5AC_protect, i32 noundef 1295, i64 noundef %80, i64 noundef %81, ptr noundef @.str.16)
  br label %83

83:                                               ; preds = %79
  br label %84

84:                                               ; preds = %83
  store i8 1, ptr %13, align 1, !tbaa !7
  %85 = load i8, ptr %13, align 1, !tbaa !7, !range !9, !noundef !10
  %86 = trunc i8 %85 to i1
  %87 = zext i1 %86 to i8
  store i8 %87, ptr %13, align 1, !tbaa !7
  br label %88

88:                                               ; preds = %84
  br label %89

89:                                               ; preds = %88
  br label %90

90:                                               ; preds = %89
  store ptr null, ptr %12, align 8, !tbaa !84
  br label %124

91:                                               ; No predecessors!
  br label %92

92:                                               ; preds = %91
  br label %93

93:                                               ; preds = %92
  br label %94

94:                                               ; preds = %93
  br label %95

95:                                               ; preds = %94, %72, %67
  %96 = load ptr, ptr %6, align 8, !tbaa !13
  %97 = load ptr, ptr %7, align 8, !tbaa !78
  %98 = load i64, ptr %8, align 8, !tbaa !11
  %99 = load ptr, ptr %9, align 8, !tbaa !84
  %100 = load i32, ptr %10, align 4, !tbaa !3
  %101 = call ptr @H5C_protect(ptr noundef %96, ptr noundef %97, i64 noundef %98, ptr noundef %99, i32 noundef %100)
  store ptr %101, ptr %11, align 8, !tbaa !84
  %102 = icmp eq ptr null, %101
  br i1 %102, label %103, label %122

103:                                              ; preds = %95
  br label %104

104:                                              ; preds = %103
  br label %105

105:                                              ; preds = %104
  br label %106

106:                                              ; preds = %105
  %107 = load i64, ptr @H5E_CACHE_g, align 8, !tbaa !11
  %108 = load i64, ptr @H5E_CANTPROTECT_g, align 8, !tbaa !11
  %109 = call i32 (ptr, ptr, i32, i64, i64, ptr, ...) @H5E_printf_stack(ptr noundef @.str, ptr noundef @__func__.H5AC_protect, i32 noundef 1303, i64 noundef %107, i64 noundef %108, ptr noundef @.str.29)
  br label %110

110:                                              ; preds = %106
  br label %111

111:                                              ; preds = %110
  store i8 1, ptr %13, align 1, !tbaa !7
  %112 = load i8, ptr %13, align 1, !tbaa !7, !range !9, !noundef !10
  %113 = trunc i8 %112 to i1
  %114 = zext i1 %113 to i8
  store i8 %114, ptr %13, align 1, !tbaa !7
  br label %115

115:                                              ; preds = %111
  br label %116

116:                                              ; preds = %115
  br label %117

117:                                              ; preds = %116
  store ptr null, ptr %12, align 8, !tbaa !84
  br label %124

118:                                              ; No predecessors!
  br label %119

119:                                              ; preds = %118
  br label %120

120:                                              ; preds = %119
  br label %121

121:                                              ; preds = %120
  br label %122

122:                                              ; preds = %121, %95
  %123 = load ptr, ptr %11, align 8, !tbaa !84
  store ptr %123, ptr %12, align 8, !tbaa !84
  br label %124

124:                                              ; preds = %122, %117, %90, %46
  call void @llvm.lifetime.start.p0(i64 4, ptr %14) #6
  %125 = load ptr, ptr %12, align 8, !tbaa !84
  %126 = icmp eq ptr null, %125
  %127 = select i1 %126, i32 -1, i32 0
  store i32 %127, ptr %14, align 4, !tbaa !3
  %128 = load ptr, ptr %6, align 8, !tbaa !13
  %129 = getelementptr inbounds nuw %struct.H5F_t, ptr %128, i32 0, i32 2
  %130 = load ptr, ptr %129, align 8, !tbaa !16
  %131 = getelementptr inbounds nuw %struct.H5F_shared_t, ptr %130, i32 0, i32 16
  %132 = load ptr, ptr %131, align 8, !tbaa !22
  %133 = getelementptr inbounds nuw %struct.H5C_t, ptr %132, i32 0, i32 1
  %134 = load ptr, ptr %133, align 8, !tbaa !56
  %135 = getelementptr inbounds nuw %struct.H5C_log_info_t, ptr %134, i32 0, i32 1
  %136 = load i8, ptr %135, align 1, !tbaa !64, !range !9, !noundef !10
  %137 = trunc i8 %136 to i1
  br i1 %137, label %138, label %169

138:                                              ; preds = %124
  %139 = load ptr, ptr %6, align 8, !tbaa !13
  %140 = getelementptr inbounds nuw %struct.H5F_t, ptr %139, i32 0, i32 2
  %141 = load ptr, ptr %140, align 8, !tbaa !16
  %142 = getelementptr inbounds nuw %struct.H5F_shared_t, ptr %141, i32 0, i32 16
  %143 = load ptr, ptr %142, align 8, !tbaa !22
  %144 = load ptr, ptr %11, align 8, !tbaa !84
  %145 = load ptr, ptr %7, align 8, !tbaa !78
  %146 = getelementptr inbounds nuw %struct.H5C_class_t, ptr %145, i32 0, i32 0
  %147 = load i32, ptr %146, align 8, !tbaa !80
  %148 = load i32, ptr %10, align 4, !tbaa !3
  %149 = load i32, ptr %14, align 4, !tbaa !3
  %150 = call i32 @H5C_log_write_protect_entry_msg(ptr noundef %143, ptr noundef %144, i32 noundef %147, i32 noundef %148, i32 noundef %149)
  %151 = icmp slt i32 %150, 0
  br i1 %151, label %152, label %168

152:                                              ; preds = %138
  br label %153

153:                                              ; preds = %152
  br label %154

154:                                              ; preds = %153
  br label %155

155:                                              ; preds = %154
  %156 = load i64, ptr @H5E_CACHE_g, align 8, !tbaa !11
  %157 = load i64, ptr @H5E_LOGGING_g, align 8, !tbaa !11
  %158 = call i32 (ptr, ptr, i32, i64, i64, ptr, ...) @H5E_printf_stack(ptr noundef @.str, ptr noundef @__func__.H5AC_protect, i32 noundef 1316, i64 noundef %156, i64 noundef %157, ptr noundef @.str.7)
  br label %159

159:                                              ; preds = %155
  br label %160

160:                                              ; preds = %159
  store i8 1, ptr %13, align 1, !tbaa !7
  %161 = load i8, ptr %13, align 1, !tbaa !7, !range !9, !noundef !10
  %162 = trunc i8 %161 to i1
  %163 = zext i1 %162 to i8
  store i8 %163, ptr %13, align 1, !tbaa !7
  br label %164

164:                                              ; preds = %160
  br label %165

165:                                              ; preds = %164
  store ptr null, ptr %12, align 8, !tbaa !84
  br label %166

166:                                              ; preds = %165
  br label %167

167:                                              ; preds = %166
  br label %168

168:                                              ; preds = %167, %138
  br label %169

169:                                              ; preds = %168, %124
  call void @llvm.lifetime.end.p0(i64 4, ptr %14) #6
  br label %170

170:                                              ; preds = %169, %59
  %171 = load ptr, ptr %12, align 8, !tbaa !84
  call void @llvm.lifetime.end.p0(i64 1, ptr %13) #6
  call void @llvm.lifetime.end.p0(i64 8, ptr %12) #6
  call void @llvm.lifetime.end.p0(i64 8, ptr %11) #6
  ret ptr %171
}