; Function Attrs: nounwind uwtable
define ptr @H5AC_protect(ptr noundef %0, ptr noundef %1, i64 noundef %2, ptr noundef %3, i32 noundef %4) local_unnamed_addr #4 {
  %6 = load i8, ptr @H5AC_init_g, align 1, !tbaa !3, !range !7, !noundef !8
  %7 = trunc nuw i8 %6 to i1
  %8 = load i8, ptr @H5_libterm_g, align 1, !range !7
  %9 = trunc nuw i8 %8 to i1
  %10 = select i1 %7, i1 true, i1 %9
  br i1 %10, label %11, label %.thread, !prof !9

.thread:                                          ; preds = %5
  store i8 1, ptr @H5AC_init_g, align 1, !tbaa !3
  br label %14

11:                                               ; preds = %5
  %12 = xor i1 %9, true
  %13 = select i1 %7, i1 true, i1 %12
  br i1 %13, label %14, label %50, !prof !41

14:                                               ; preds = %.thread, %11
  %15 = tail call i32 @H5F_get_intent(ptr noundef %0) #8
  %16 = and i32 %15, 1
  %17 = and i32 %4, 128
  %18 = or disjoint i32 %16, %17
  %or.cond = icmp eq i32 %18, 0
  br i1 %or.cond, label %19, label %23

19:                                               ; preds = %14
  %20 = load i64, ptr @H5E_CACHE_g, align 8, !tbaa !42
  %21 = load i64, ptr @H5E_BADVALUE_g, align 8, !tbaa !42
  %22 = tail call i32 (ptr, ptr, i32, i64, i64, ptr, ...) @H5E_printf_stack(ptr noundef nonnull @.str, ptr noundef nonnull @__func__.H5AC_protect, i32 noundef 1295, i64 noundef %20, i64 noundef %21, ptr noundef nonnull @.str.16) #8
  br label %30

23:                                               ; preds = %14
  %24 = tail call ptr @H5C_protect(ptr noundef %0, ptr noundef %1, i64 noundef %2, ptr noundef %3, i32 noundef %4) #8
  %25 = icmp eq ptr %24, null
  br i1 %25, label %26, label %30

26:                                               ; preds = %23
  %27 = load i64, ptr @H5E_CACHE_g, align 8, !tbaa !42
  %28 = load i64, ptr @H5E_CANTPROTECT_g, align 8, !tbaa !42
  %29 = tail call i32 (ptr, ptr, i32, i64, i64, ptr, ...) @H5E_printf_stack(ptr noundef nonnull @.str, ptr noundef nonnull @__func__.H5AC_protect, i32 noundef 1303, i64 noundef %27, i64 noundef %28, ptr noundef nonnull @.str.29) #8
  br label %30

30:                                               ; preds = %23, %26, %19
  %.0 = phi ptr [ null, %19 ], [ null, %26 ], [ %24, %23 ]
  %31 = getelementptr inbounds nuw i8, ptr %0, i64 16
  %32 = load ptr, ptr %31, align 8, !tbaa !11
  %33 = getelementptr inbounds nuw i8, ptr %32, i64 112
  %34 = load ptr, ptr %33, align 8, !tbaa !20
  %35 = getelementptr inbounds nuw i8, ptr %34, i64 8
  %36 = load ptr, ptr %35, align 8, !tbaa !52
  %37 = getelementptr inbounds nuw i8, ptr %36, i64 1
  %38 = load i8, ptr %37, align 1, !tbaa !60, !range !7, !noundef !8
  %39 = trunc nuw i8 %38 to i1
  br i1 %39, label %40, label %50

40:                                               ; preds = %30
  %41 = icmp eq ptr %.0, null
  %42 = sext i1 %41 to i32
  %43 = load i32, ptr %1, align 8, !tbaa !116
  %44 = tail call i32 @H5C_log_write_protect_entry_msg(ptr noundef nonnull %34, ptr noundef %.0, i32 noundef %43, i32 noundef %4, i32 noundef %42) #8
  %45 = icmp slt i32 %44, 0
  br i1 %45, label %46, label %50

46:                                               ; preds = %40
  %47 = load i64, ptr @H5E_CACHE_g, align 8, !tbaa !42
  %48 = load i64, ptr @H5E_LOGGING_g, align 8, !tbaa !42
  %49 = tail call i32 (ptr, ptr, i32, i64, i64, ptr, ...) @H5E_printf_stack(ptr noundef nonnull @.str, ptr noundef nonnull @__func__.H5AC_protect, i32 noundef 1316, i64 noundef %47, i64 noundef %48, ptr noundef nonnull @.str.7) #8
  br label %50

50:                                               ; preds = %30, %46, %40, %11
  %.1 = phi ptr [ null, %11 ], [ null, %46 ], [ %.0, %40 ], [ %.0, %30 ]
  ret ptr %.1
}